; Function Attrs: nounwind sspstrong uwtable
define internal void @net_socket_writable(ptr noundef initializes((70081, 70082)) %opaque) #0 {
entry:
  %write_poll.i = getelementptr inbounds nuw i8, ptr %opaque, i64 70081
  store i8 0, ptr %write_poll.i, align 1
  %fd.i.i = getelementptr inbounds nuw i8, ptr %opaque, i64 380
  %0 = load i32, ptr %fd.i.i, align 4
  %read_poll.i.i = getelementptr inbounds nuw i8, ptr %opaque, i64 70080
  %1 = load i8, ptr %read_poll.i.i, align 8
  %tobool.i.i = trunc i8 %1 to i1
  br i1 %tobool.i.i, label %cond.true.i.i, label %net_socket_write_poll.exit

cond.true.i.i:                                    ; preds = %entry
  %send_fn.i.i = getelementptr inbounds nuw i8, ptr %opaque, i64 70072
  %2 = load ptr, ptr %send_fn.i.i, align 8
  br label %net_socket_write_poll.exit

net_socket_write_poll.exit:                       ; preds = %entry, %cond.true.i.i
  %cond.i.i = phi ptr [ %2, %cond.true.i.i ], [ null, %entry ]
  tail call void @qemu_set_fd_handler(i32 noundef %0, ptr noundef %cond.i.i, ptr noundef null, ptr noundef nonnull %opaque) #8
  tail call void @qemu_flush_queued_packets(ptr noundef nonnull %opaque) #8
  ret void
}